; Function Attrs: nounwind sspstrong uwtable
define internal fastcc void @thread_sched_to_ready(ptr noundef %0, ptr noundef %1) unnamed_addr #0 {
  %3 = tail call i32 @pthread_mutex_lock(ptr noundef %0) #17
  %.not.i.i = icmp eq i32 %3, 0
  br i1 %.not.i.i, label %thread_sched_lock_.exit, label %4

4:                                                ; preds = %2
  tail call void @rb_bug_errno(ptr noundef nonnull @.str.1, i32 noundef %3) #38
  unreachable

thread_sched_lock_.exit:                          ; preds = %2
  %5 = load ptr, ptr @rb_internal_thread_event_hooks, align 8, !tbaa !78
  %.not.i = icmp eq ptr %5, null
  br i1 %.not.i, label %7, label %6, !prof !45

6:                                                ; preds = %thread_sched_lock_.exit
  tail call fastcc void @rb_thread_execute_hooks(i32 noundef 2, ptr noundef %1)
  br label %7

7:                                                ; preds = %6, %thread_sched_lock_.exit
  %8 = getelementptr inbounds nuw i8, ptr %0, i64 40
  %9 = load ptr, ptr %8, align 8, !tbaa !85
  %10 = icmp eq ptr %9, null
  br i1 %10, label %11, label %12

11:                                               ; preds = %7
  store ptr %1, ptr %8, align 8, !tbaa !85
  tail call fastcc void @thread_sched_wakeup_running_thread(ptr noundef %1, i1 noundef zeroext false)
  br label %thread_sched_to_ready_common.exit

12:                                               ; preds = %7
  %13 = getelementptr inbounds nuw i8, ptr %0, i64 48
  %14 = load i8, ptr %13, align 8, !tbaa !101, !range !102, !noundef !103
  %15 = trunc nuw i8 %14 to i1
  br i1 %15, label %16, label %thread_sched_enq.exit.i

16:                                               ; preds = %12
  %17 = getelementptr inbounds nuw i8, ptr %0, i64 56
  %18 = load ptr, ptr %17, align 8, !tbaa !54
  %.not.i.i6 = icmp eq ptr %18, %17
  br i1 %.not.i.i6, label %19, label %thread_sched_enq.exit.i

19:                                               ; preds = %16
  %20 = getelementptr inbounds nuw i8, ptr %1, i64 32
  %21 = load ptr, ptr %20, align 8, !tbaa !53
  tail call fastcc void @thread_sched_setup_running_threads(ptr noundef nonnull %0, ptr noundef %21, ptr noundef null, ptr noundef null, ptr noundef nonnull %9)
  br label %thread_sched_enq.exit.i

thread_sched_enq.exit.i:                          ; preds = %19, %16, %12
  %22 = getelementptr inbounds nuw i8, ptr %0, i64 56
  %23 = getelementptr inbounds nuw i8, ptr %1, i64 72
  store ptr %22, ptr %23, align 8, !tbaa !84
  %24 = getelementptr inbounds nuw i8, ptr %0, i64 64
  %25 = load ptr, ptr %24, align 8, !tbaa !83
  %26 = getelementptr inbounds nuw i8, ptr %1, i64 80
  store ptr %25, ptr %26, align 8, !tbaa !83
  store ptr %23, ptr %25, align 8, !tbaa !84
  store ptr %23, ptr %24, align 8, !tbaa !83
  %27 = getelementptr inbounds nuw i8, ptr %0, i64 72
  %28 = load i32, ptr %27, align 8, !tbaa !56
  %29 = add i32 %28, 1
  store i32 %29, ptr %27, align 8, !tbaa !56
  br label %thread_sched_to_ready_common.exit

thread_sched_to_ready_common.exit:                ; preds = %11, %thread_sched_enq.exit.i
  %30 = tail call i32 @pthread_mutex_unlock(ptr noundef nonnull %0) #17
  %.not.i.i7 = icmp eq i32 %30, 0
  br i1 %.not.i.i7, label %thread_sched_unlock_.exit, label %31

31:                                               ; preds = %thread_sched_to_ready_common.exit
  tail call void @rb_bug_errno(ptr noundef nonnull @.str.3, i32 noundef %30) #38
  unreachable

thread_sched_unlock_.exit:                        ; preds = %thread_sched_to_ready_common.exit
  ret void
}